#include <math.h>
#include <stdio.h>
#include <stdlib.h>
#include <string.h>

 int reverse(int num)
{   
    int i=0;
   for (;num!=0;)   
   {
   i=i*10+num%10;
   num=num/10;
   }
   return (i);
}
   
main ()
{  
   int x[6],p[6],i;
   for (i=0;i<6;i++)
   scanf ("%d",&x[i]); 
   for (i=0;i<6;i++)
   {
       if (x[i]>=0)
          p[i]=reverse(x[i]);
       else 
          p[i]=-reverse(-x[i]);
    }
     for (i=0;i<6;i++)
    printf ("%d\n",p[i]);
    getchar ();
    getchar ();
 }
